target datalayout = "e-m:e-p270:32:32-p271:32:32-p272:64:64-i64:64-i128:128-f80:128-n8:16:32:64-S128"
target triple = "x86_64-unknown-linux-gnu"

%"class.datalog::external_relation" = type { %"class.datalog::relation_base.base", %class.obj_ref, %class.obj_ref.0, %class.obj_ref.0, %class.obj_ref.0 }
%"class.datalog::relation_base.base" = type { %"class.datalog::tr_infrastructure<datalog::relation_traits>::base_ancestor.base" }
%"class.datalog::tr_infrastructure<datalog::relation_traits>::base_ancestor.base" = type <{ ptr, ptr, %"class.datalog::relation_signature", i32 }>
%"class.datalog::relation_signature" = type { %"class.datalog::tr_infrastructure<datalog::relation_traits>::signature_base" }
%"class.datalog::tr_infrastructure<datalog::relation_traits>::signature_base" = type { %class.ptr_vector }
%class.ptr_vector = type { %class.vector }
%class.vector = type { ptr }
%class.obj_ref = type { ptr, ptr }
%class.obj_ref.0 = type { ptr, ptr }
%"class.datalog::tr_infrastructure<datalog::relation_traits>::base_ancestor" = type <{ ptr, ptr, %"class.datalog::relation_signature", i32, [4 x i8] }>

@_ZTIN7datalog13relation_baseE = external constant ptr
@_ZTIN7datalog17external_relationE = hidden constant { ptr, ptr, ptr } { ptr getelementptr inbounds (ptr, ptr @_ZTVN10__cxxabiv120__si_class_type_infoE, i64 2), ptr @_ZTSN7datalog17external_relationE, ptr @_ZTIN7datalog13relation_baseE }, align 8

; Function Attrs: mustprogress nounwind uwtable
define linkonce_odr hidden noundef ptr @_ZNK7obj_refI4expr11ast_managerEptEv(ptr noundef nonnull align 8 dereferenceable(16) %this) #5 comdat align 2 {
entry:
  %this.addr = alloca ptr, align 8
  store ptr %this, ptr %this.addr, align 8
  %this1 = load ptr, ptr %this.addr, align 8
  %m_obj = getelementptr inbounds %class.obj_ref, ptr %this1, i32 0, i32 0
  %0 = load ptr, ptr %m_obj, align 8
  ret ptr %0
}

; Function Attrs: mustprogress nounwind uwtable
define linkonce_odr hidden noundef nonnull align 8 dereferenceable(36) ptr @_ZNK7datalog17tr_infrastructureINS_15relation_traitsEE13base_ancestor10get_pluginEv(ptr noundef nonnull align 8 dereferenceable(28) %this) #5 comdat align 2 {
entry:
  %this.addr = alloca ptr, align 8
  store ptr %this, ptr %this.addr, align 8
  %this1 = load ptr, ptr %this.addr, align 8
  %m_plugin = getelementptr inbounds %"class.datalog::tr_infrastructure<datalog::relation_traits>::base_ancestor", ptr %this1, i32 0, i32 1
  %0 = load ptr, ptr %m_plugin, align 8
  ret ptr %0
}

; Function Attrs: mustprogress uwtable
define linkonce_odr hidden noundef ptr @_ZNK7datalog17external_relation8get_sortEv(ptr noundef nonnull align 8 dereferenceable(96) %this) #4 comdat align 2 {
entry:
  %this.addr = alloca ptr, align 8
  store ptr %this, ptr %this.addr, align 8
  %this1 = load ptr, ptr %this.addr, align 8
  %m_rel = getelementptr inbounds %"class.datalog::external_relation", ptr %this1, i32 0, i32 1
  %call = call noundef ptr @_ZNK7obj_refI4expr11ast_managerEptEv(ptr noundef nonnull align 8 dereferenceable(16) %m_rel)
  %call2 = call noundef ptr @_ZNK4expr8get_sortEv(ptr noundef nonnull align 4 dereferenceable(16) %call)
  ret ptr %call2
}

; Function Attrs: mustprogress uwtable
define hidden noundef nonnull align 8 dereferenceable(96) ptr @_ZN7datalog24external_relation_plugin3getERKNS_13relation_baseE(ptr noundef nonnull align 8 dereferenceable(28) %r) #4 align 2 {
entry:
  %r.addr = alloca ptr, align 8
  store ptr %r, ptr %r.addr, align 8
  %0 = load ptr, ptr %r.addr, align 8
  %1 = call ptr @__dynamic_cast(ptr %0, ptr @_ZTIN7datalog13relation_baseE, ptr @_ZTIN7datalog17external_relationE, i64 0) #3
  %2 = icmp eq ptr %1, null
  br i1 %2, label %dynamic_cast.bad_cast, label %dynamic_cast.end

dynamic_cast.bad_cast:                            ; preds = %entry
  call void @__cxa_bad_cast() #17
  unreachable

dynamic_cast.end:                                 ; preds = %entry
  ret ptr %1
}

; Function Attrs: mustprogress nounwind uwtable
define linkonce_odr hidden noundef zeroext i1 @_ZNK7datalog17tr_infrastructureINS_15relation_traitsEE13plugin_object10check_kindERKNS_13relation_baseE(ptr noundef nonnull align 8 dereferenceable(32) %this, ptr noundef nonnull align 8 dereferenceable(28) %r) #5 comdat align 2 {
entry:
  %this.addr = alloca ptr, align 8
  %r.addr = alloca ptr, align 8
  store ptr %this, ptr %this.addr, align 8
  store ptr %r, ptr %r.addr, align 8
  %this1 = load ptr, ptr %this.addr, align 8
  %0 = load ptr, ptr %r.addr, align 8
  %call = call noundef nonnull align 8 dereferenceable(36) ptr @_ZNK7datalog17tr_infrastructureINS_15relation_traitsEE13base_ancestor10get_pluginEv(ptr noundef nonnull align 8 dereferenceable(28) %0)
  %cmp = icmp eq ptr %call, %this1
  ret i1 %cmp
}

; Function Attrs: mustprogress uwtable
define hidden noundef ptr @_ZN7datalog24external_relation_plugin11mk_union_fnERKNS_13relation_baseES3_PS2_(ptr noundef nonnull align 8 dereferenceable(48) %this, ptr noundef nonnull align 8 dereferenceable(28) %tgt, ptr noundef nonnull align 8 dereferenceable(28) %src, ptr noundef %delta) unnamed_addr #4 align 2 {
entry:
  %retval = alloca ptr, align 8
  %this.addr = alloca ptr, align 8
  %tgt.addr = alloca ptr, align 8
  %src.addr = alloca ptr, align 8
  %delta.addr = alloca ptr, align 8
  store ptr %this, ptr %this.addr, align 8
  store ptr %tgt, ptr %tgt.addr, align 8
  store ptr %src, ptr %src.addr, align 8
  store ptr %delta, ptr %delta.addr, align 8
  %this1 = load ptr, ptr %this.addr, align 8
  %0 = load ptr, ptr %tgt.addr, align 8
  %call = call noundef zeroext i1 @_ZNK7datalog17tr_infrastructureINS_15relation_traitsEE13plugin_object10check_kindERKNS_13relation_baseE(ptr noundef nonnull align 8 dereferenceable(32) %this1, ptr noundef nonnull align 8 dereferenceable(28) %0)
  br i1 %call, label %lor.lhs.false, label %if.then

lor.lhs.false:                                    ; preds = %entry
  %1 = load ptr, ptr %src.addr, align 8
  %call2 = call noundef zeroext i1 @_ZNK7datalog17tr_infrastructureINS_15relation_traitsEE13plugin_object10check_kindERKNS_13relation_baseE(ptr noundef nonnull align 8 dereferenceable(32) %this1, ptr noundef nonnull align 8 dereferenceable(28) %1)
  br i1 %call2, label %lor.lhs.false3, label %if.then

lor.lhs.false3:                                   ; preds = %lor.lhs.false
  %2 = load ptr, ptr %delta.addr, align 8
  %tobool = icmp ne ptr %2, null
  br i1 %tobool, label %land.lhs.true, label %if.end

land.lhs.true:                                    ; preds = %lor.lhs.false3
  %3 = load ptr, ptr %delta.addr, align 8
  %call4 = call noundef zeroext i1 @_ZNK7datalog17tr_infrastructureINS_15relation_traitsEE13plugin_object10check_kindERKNS_13relation_baseE(ptr noundef nonnull align 8 dereferenceable(32) %this1, ptr noundef nonnull align 8 dereferenceable(28) %3)
  br i1 %call4, label %if.end, label %if.then

if.then:                                          ; preds = %land.lhs.true, %lor.lhs.false, %entry
  store ptr null, ptr %retval, align 8
  br label %return

if.end:                                           ; preds = %land.lhs.true, %lor.lhs.false3
  %call5 = call noalias noundef ptr @_ZN6memory8allocateEm(i64 noundef 64)
  %4 = load ptr, ptr %src.addr, align 8
  %call6 = call noundef nonnull align 8 dereferenceable(96) ptr @_ZN7datalog24external_relation_plugin3getERKNS_13relation_baseE(ptr noundef nonnull align 8 dereferenceable(28) %4)
  %call7 = call noundef ptr @_ZNK7datalog17external_relation8get_sortEv(ptr noundef nonnull align 8 dereferenceable(96) %call6)
  call void @_ZN7datalog24external_relation_plugin8union_fnC2ERS0_iP4sort(ptr noundef nonnull align 8 dereferenceable(64) %call5, ptr noundef nonnull align 8 dereferenceable(48) %this1, i32 noundef 4, ptr noundef %call7)
  store ptr %call5, ptr %retval, align 8
  br label %return

return:                                           ; preds = %if.end, %if.then
  %5 = load ptr, ptr %retval, align 8
  ret ptr %5
}